; Function Attrs: mustprogress nofree norecurse nosync nounwind willreturn memory(argmem: readwrite) uwtable
define dso_local noundef zeroext i1 @_ZNK4base16FundamentalValue12GetAsIntegerEPi(ptr nocapture noundef nonnull readonly align 8 dereferenceable(24) %this, ptr noundef writeonly %out_value) unnamed_addr #7 align 2 {
entry:
  %tobool.not = icmp ne ptr %out_value, null
  %type_.i = getelementptr inbounds i8, ptr %this, i64 8
  %0 = load i32, ptr %type_.i, align 8
  %cmp.i = icmp eq i32 %0, 2
  %or.cond = select i1 %tobool.not, i1 %cmp.i, i1 false
  br i1 %or.cond, label %if.then, label %if.end

if.then:                                          ; preds = %entry
  %1 = getelementptr inbounds i8, ptr %this, i64 16
  %2 = load i32, ptr %1, align 8
  store i32 %2, ptr %out_value, align 4
  %.pre = load i32, ptr %type_.i, align 8
  br label %if.end

if.end:                                           ; preds = %if.then, %entry
  %3 = phi i32 [ %.pre, %if.then ], [ %0, %entry ]
  %cmp.i3 = icmp eq i32 %3, 2
  ret i1 %cmp.i3
}